target datalayout = "e-m:e-p270:32:32-p271:32:32-p272:64:64-i64:64-i128:128-f80:128-n8:16:32:64-S128"
target triple = "x86_64-pc-linux-gnu"

@hf_kafka_config_resource_type = internal global i32 0, align 4
@hf_kafka_config_resource_name = internal global i32 0, align 4
@ett_kafka_resource = internal global i32 0, align 4
@ett_kafka_config_entries = internal global i32 0, align 4
@.str.732 = private unnamed_addr constant [9 x i8] c"Resource\00", align 1
@.str.733 = private unnamed_addr constant [8 x i8] c"Entries\00", align 1

; Function Attrs: null_pointer_is_valid sspstrong uwtable
define internal i32 @dissect_kafka_alter_config_request_resource(ptr noundef %0, ptr noundef %1, ptr noundef %2, i32 noundef %3, i16 noundef signext %4) #0 {
  %6 = alloca ptr, align 8
  %7 = alloca ptr, align 8
  %8 = alloca ptr, align 8
  %9 = alloca i32, align 4
  %10 = alloca i16, align 2
  %11 = alloca ptr, align 8
  %12 = alloca ptr, align 8
  %13 = alloca ptr, align 8
  %14 = alloca ptr, align 8
  store ptr %0, ptr %6, align 8
  store ptr %1, ptr %7, align 8
  store ptr %2, ptr %8, align 8
  store i32 %3, ptr %9, align 4
  store i16 %4, ptr %10, align 2
  call void @llvm.lifetime.start.p0(i64 8, ptr %11) #12
  call void @llvm.lifetime.start.p0(i64 8, ptr %12) #12
  call void @llvm.lifetime.start.p0(i64 8, ptr %13) #12
  call void @llvm.lifetime.start.p0(i64 8, ptr %14) #12
  %15 = load ptr, ptr %8, align 8
  %16 = load ptr, ptr %6, align 8
  %17 = load i32, ptr %9, align 4
  %18 = load i32, ptr @ett_kafka_resource, align 4
  %19 = call ptr @proto_tree_add_subtree(ptr noundef %15, ptr noundef %16, i32 noundef %17, i32 noundef -1, i32 noundef %18, ptr noundef %11, ptr noundef @.str.732)
  store ptr %19, ptr %13, align 8
  %20 = load ptr, ptr %13, align 8
  %21 = load i32, ptr @hf_kafka_config_resource_type, align 4
  %22 = load ptr, ptr %6, align 8
  %23 = load i32, ptr %9, align 4
  %24 = call ptr @proto_tree_add_item(ptr noundef %20, i32 noundef %21, ptr noundef %22, i32 noundef %23, i32 noundef 1, i32 noundef 0)
  %25 = load i32, ptr %9, align 4
  %26 = add i32 %25, 1
  store i32 %26, ptr %9, align 4
  %27 = load ptr, ptr %13, align 8
  %28 = load i32, ptr @hf_kafka_config_resource_name, align 4
  %29 = load ptr, ptr %6, align 8
  %30 = load ptr, ptr %7, align 8
  %31 = load i32, ptr %9, align 4
  %32 = call i32 @dissect_kafka_string(ptr noundef %27, i32 noundef %28, ptr noundef %29, ptr noundef %30, i32 noundef %31, i32 noundef 0, ptr noundef null, ptr noundef null)
  store i32 %32, ptr %9, align 4
  %33 = load ptr, ptr %8, align 8
  %34 = load ptr, ptr %6, align 8
  %35 = load i32, ptr %9, align 4
  %36 = load i32, ptr @ett_kafka_config_entries, align 4
  %37 = call ptr @proto_tree_add_subtree(ptr noundef %33, ptr noundef %34, i32 noundef %35, i32 noundef -1, i32 noundef %36, ptr noundef %12, ptr noundef @.str.733)
  store ptr %37, ptr %14, align 8
  %38 = load ptr, ptr %14, align 8
  %39 = load ptr, ptr %6, align 8
  %40 = load ptr, ptr %7, align 8
  %41 = load i32, ptr %9, align 4
  %42 = load i16, ptr %10, align 2
  %43 = call i32 @dissect_kafka_array(ptr noundef %38, ptr noundef %39, ptr noundef %40, i32 noundef %41, i32 noundef 0, i16 noundef signext %42, ptr noundef @dissect_kafka_alter_config_request_entry, ptr noundef null)
  store i32 %43, ptr %9, align 4
  %44 = load ptr, ptr %11, align 8
  %45 = load ptr, ptr %6, align 8
  %46 = load i32, ptr %9, align 4
  call void @proto_item_set_end(ptr noundef %44, ptr noundef %45, i32 noundef %46)
  %47 = load i32, ptr %9, align 4
  call void @llvm.lifetime.end.p0(i64 8, ptr %14) #12
  call void @llvm.lifetime.end.p0(i64 8, ptr %13) #12
  call void @llvm.lifetime.end.p0(i64 8, ptr %12) #12
  call void @llvm.lifetime.end.p0(i64 8, ptr %11) #12
  ret i32 %47
}