; Function Attrs: null_pointer_is_valid sspstrong uwtable
define internal noundef i32 @dissect_kafka_alter_config_request_resource(ptr noundef %0, ptr noundef %1, ptr noundef %2, i32 noundef %3, i16 noundef signext %4) #0 {
  %6 = alloca ptr, align 8
  %7 = alloca ptr, align 8
  call void @llvm.lifetime.start.p0(i64 8, ptr nonnull %6) #9
  call void @llvm.lifetime.start.p0(i64 8, ptr nonnull %7) #9
  %8 = load i32, ptr @ett_kafka_resource, align 4
  %9 = call ptr @proto_tree_add_subtree(ptr noundef %2, ptr noundef %0, i32 noundef %3, i32 noundef -1, i32 noundef %8, ptr noundef nonnull %6, ptr noundef nonnull @.str.732)
  %10 = load i32, ptr @hf_kafka_config_resource_type, align 4
  %11 = call ptr @proto_tree_add_item(ptr noundef %9, i32 noundef %10, ptr noundef %0, i32 noundef %3, i32 noundef 1, i32 noundef 0)
  %12 = add i32 %3, 1
  %13 = load i32, ptr @hf_kafka_config_resource_name, align 4
  %14 = call fastcc i32 @dissect_kafka_string(ptr noundef %9, i32 noundef %13, ptr noundef %0, ptr noundef %1, i32 noundef %12, i32 noundef 0, ptr noundef null, ptr noundef null)
  %15 = load i32, ptr @ett_kafka_config_entries, align 4
  %16 = call ptr @proto_tree_add_subtree(ptr noundef %2, ptr noundef %0, i32 noundef %14, i32 noundef -1, i32 noundef %15, ptr noundef nonnull %7, ptr noundef nonnull @.str.733)
  %17 = call fastcc i32 @dissect_kafka_array(ptr noundef %16, ptr noundef %0, ptr noundef %1, i32 noundef %14, i32 noundef 0, i16 noundef signext %4, ptr noundef nonnull @dissect_kafka_alter_config_request_entry, ptr noundef null)
  %18 = load ptr, ptr %6, align 8
  call void @proto_item_set_end(ptr noundef %18, ptr noundef %0, i32 noundef %17)
  call void @llvm.lifetime.end.p0(i64 8, ptr nonnull %7) #9
  call void @llvm.lifetime.end.p0(i64 8, ptr nonnull %6) #9
  ret i32 %17
}